; Function Attrs: mustprogress uwtable
define hidden noundef ptr @_Z33pj_projection_specific_setup_bipcP8PJconsts(ptr noundef %0) local_unnamed_addr #0 {
  %2 = tail call noalias dereferenceable_or_null(4) ptr @calloc(i64 noundef 1, i64 noundef 4) #5
  %3 = icmp eq ptr %2, null
  br i1 %3, label %4, label %6

4:                                                ; preds = %1
  %5 = tail call noundef ptr @_Z21pj_default_destructorP8PJconstsi(ptr noundef %0, i32 noundef 4096)
  br label %15

6:                                                ; preds = %1
  %7 = getelementptr inbounds nuw i8, ptr %0, i64 88
  store ptr %2, ptr %7, align 8, !tbaa !3
  %8 = load ptr, ptr %0, align 8, !tbaa !36
  %9 = getelementptr inbounds nuw i8, ptr %0, i64 24
  %10 = load ptr, ptr %9, align 8, !tbaa !37
  %11 = tail call i64 @_Z8pj_paramP6pj_ctxP8ARG_listPKc(ptr noundef %8, ptr noundef %10, ptr noundef nonnull @.str.1)
  %.sroa.0.0.extract.trunc = trunc i64 %11 to i32
  store i32 %.sroa.0.0.extract.trunc, ptr %2, align 4, !tbaa !38
  %12 = getelementptr inbounds nuw i8, ptr %0, i64 112
  store ptr @_ZL14bipc_s_inverse5PJ_XYP8PJconsts, ptr %12, align 8, !tbaa !40
  %13 = getelementptr inbounds nuw i8, ptr %0, i64 104
  store ptr @_ZL14bipc_s_forward5PJ_LPP8PJconsts, ptr %13, align 8, !tbaa !41
  %14 = getelementptr inbounds nuw i8, ptr %0, i64 216
  store double 0.000000e+00, ptr %14, align 8, !tbaa !42
  br label %15

15:                                               ; preds = %6, %4
  %.0 = phi ptr [ %5, %4 ], [ %0, %6 ]
  ret ptr %.0
}